; Function Attrs: null_pointer_is_valid sspstrong uwtable
define internal i32 @dissect_keyparam_ycoord(ptr noundef %0, ptr noundef %1, ptr noundef %2, ptr readnone captures(none) %3) #0 {
  %5 = alloca i32, align 4
  call void @llvm.lifetime.start.p0(i64 4, ptr nonnull %5) #8
  store i32 0, ptr %5, align 4
  %6 = getelementptr inbounds nuw i8, ptr %1, i64 408
  %7 = load ptr, ptr %6, align 8
  %8 = call ptr @wscbor_chunk_read(ptr noundef %7, ptr noundef %0, ptr noundef nonnull %5)
  %9 = getelementptr inbounds nuw i8, ptr %8, i64 40
  %10 = load i32, ptr %9, align 8
  switch i32 %10, label %17 [
    i32 7, label %11
    i32 2, label %14
  ]

11:                                               ; preds = %4
  %12 = load i32, ptr @hf_keyparam_ycoord, align 4
  %13 = call ptr @proto_tree_add_item(ptr noundef %2, i32 noundef %12, ptr noundef %0, i32 noundef 0, i32 noundef 0, i32 noundef 0)
  br label %17

14:                                               ; preds = %4
  %15 = load i32, ptr @hf_keyparam_ycoord, align 4
  %16 = call ptr @proto_tree_add_cbor_bstr(ptr noundef %2, i32 noundef %15, ptr noundef %1, ptr noundef %0, ptr noundef %8)
  br label %17

17:                                               ; preds = %4, %14, %11
  %18 = load i32, ptr %5, align 4
  call void @llvm.lifetime.end.p0(i64 4, ptr nonnull %5) #8
  ret i32 %18
}